; Function Attrs: nounwind uwtable
define ptr @ENGINE_get_last() local_unnamed_addr #0 {
  %1 = tail call i32 @CRYPTO_THREAD_run_once(ptr noundef nonnull @engine_lock_init, ptr noundef nonnull @do_engine_lock_init_ossl_) #4
  %2 = icmp ne i32 %1, 0
  %3 = load i32, ptr @do_engine_lock_init_ossl_ret_, align 4
  %4 = icmp ne i32 %3, 0
  %or.cond = select i1 %2, i1 %4, i1 false
  br i1 %or.cond, label %6, label %5

5:                                                ; preds = %0
  tail call void @ERR_new() #4
  tail call void @ERR_set_debug(ptr noundef nonnull @.str, i32 noundef 262, ptr noundef nonnull @__func__.ENGINE_get_last) #4
  tail call void (i32, i32, ptr, ...) @ERR_set_error(i32 noundef 38, i32 noundef 524303, ptr noundef null) #4
  br label %17

6:                                                ; preds = %0
  %7 = load ptr, ptr @global_engine_lock, align 8, !tbaa !21
  %8 = tail call i32 @CRYPTO_THREAD_write_lock(ptr noundef %7) #4
  %.not = icmp eq i32 %8, 0
  br i1 %.not, label %17, label %9

9:                                                ; preds = %6
  %10 = load ptr, ptr @engine_list_tail, align 8, !tbaa !22
  %.not7 = icmp eq ptr %10, null
  br i1 %.not7, label %14, label %11

11:                                               ; preds = %9
  %12 = getelementptr inbounds nuw i8, ptr %10, i64 156
  %13 = atomicrmw add ptr %12, i32 1 monotonic, align 4
  br label %14

14:                                               ; preds = %11, %9
  %15 = load ptr, ptr @global_engine_lock, align 8, !tbaa !21
  %16 = tail call i32 @CRYPTO_THREAD_unlock(ptr noundef %15) #4
  br label %17

17:                                               ; preds = %6, %14, %5
  %.05 = phi ptr [ %10, %14 ], [ null, %5 ], [ null, %6 ]
  ret ptr %.05
}